; Function Attrs: nounwind uwtable
define ptr @l___private_Lean_Meta_WHNF_0__Lean_Meta_deltaBetaDefinition___at_Lean_Meta_unfoldDefinition_x3f___spec__4___lambda__1(ptr noundef %0, ptr noundef %1, ptr readnone captures(none) %2, ptr noundef %3, ptr noundef %4, ptr noundef %5, ptr noundef %6, ptr noundef %7) local_unnamed_addr #1 {
  %9 = tail call ptr @l_Lean_Meta_recordUnfold(ptr noundef %0, ptr noundef %3, ptr noundef %4, ptr noundef %5, ptr noundef %6, ptr noundef %7) #5
  %.val = load i32, ptr %9, align 4, !tbaa !4
  %10 = icmp eq i32 %.val, 1
  br i1 %10, label %11, label %28

11:                                               ; preds = %8
  %12 = getelementptr inbounds nuw i8, ptr %9, i64 8
  %13 = load ptr, ptr %12, align 8, !tbaa !12
  %14 = ptrtoint ptr %13 to i64
  %15 = and i64 %14, 1
  %.not32 = icmp eq i64 %15, 0
  br i1 %.not32, label %16, label %lean_dec.exit25

16:                                               ; preds = %11
  %17 = load i32, ptr %13, align 4, !tbaa !4
  %18 = icmp sgt i32 %17, 1
  br i1 %18, label %19, label %21, !prof !11

19:                                               ; preds = %16
  %20 = add nsw i32 %17, -1
  store i32 %20, ptr %13, align 4, !tbaa !4
  br label %lean_dec.exit25

21:                                               ; preds = %16
  %.not.i = icmp eq i32 %17, 0
  br i1 %.not.i, label %lean_dec.exit25, label %22

22:                                               ; preds = %21
  tail call void @lean_dec_ref_cold(ptr noundef nonnull %13) #5
  br label %lean_dec.exit25

lean_dec.exit25:                                  ; preds = %22, %21, %19, %11
  tail call void @lean_inc_heartbeat() #5
  %23 = tail call noalias ptr @mi_malloc_small(i64 noundef 16) #5
  %24 = icmp eq ptr %23, null
  br i1 %24, label %25, label %lean_alloc_ctor.exit

25:                                               ; preds = %lean_dec.exit25
  tail call void @lean_internal_panic_out_of_memory() #4
  unreachable

lean_alloc_ctor.exit:                             ; preds = %lean_dec.exit25
  %26 = getelementptr inbounds nuw i8, ptr %23, i64 4
  store i32 1, ptr %23, align 4, !tbaa !4
  store i32 16842768, ptr %26, align 4
  %27 = getelementptr inbounds nuw i8, ptr %23, i64 8
  store ptr %1, ptr %27, align 8, !tbaa !12
  store ptr %23, ptr %12, align 8, !tbaa !12
  br label %59

28:                                               ; preds = %8
  %29 = getelementptr inbounds nuw i8, ptr %9, i64 16
  %30 = load ptr, ptr %29, align 8, !tbaa !12
  %31 = ptrtoint ptr %30 to i64
  %32 = and i64 %31, 1
  %.not = icmp eq i64 %32, 0
  br i1 %.not, label %33, label %lean_inc.exit

33:                                               ; preds = %28
  %.val.i = load i32, ptr %30, align 4, !tbaa !4
  %34 = icmp sgt i32 %.val.i, 0
  br i1 %34, label %35, label %37, !prof !11

35:                                               ; preds = %33
  %36 = add nuw i32 %.val.i, 1
  store i32 %36, ptr %30, align 4, !tbaa !4
  br label %lean_inc.exit

37:                                               ; preds = %33
  %.not.i28 = icmp eq i32 %.val.i, 0
  br i1 %.not.i28, label %lean_inc.exit, label %38

38:                                               ; preds = %37
  tail call void @lean_inc_ref_cold(ptr noundef nonnull %30) #5
  br label %lean_inc.exit

lean_inc.exit:                                    ; preds = %38, %37, %35, %28
  %39 = ptrtoint ptr %9 to i64
  %40 = and i64 %39, 1
  %.not31 = icmp eq i64 %40, 0
  br i1 %.not31, label %41, label %lean_dec.exit

41:                                               ; preds = %lean_inc.exit
  %42 = load i32, ptr %9, align 4, !tbaa !4
  %43 = icmp sgt i32 %42, 1
  br i1 %43, label %44, label %46, !prof !11

44:                                               ; preds = %41
  %45 = add nsw i32 %42, -1
  store i32 %45, ptr %9, align 4, !tbaa !4
  br label %lean_dec.exit

46:                                               ; preds = %41
  %.not.i26 = icmp eq i32 %42, 0
  br i1 %.not.i26, label %lean_dec.exit, label %47

47:                                               ; preds = %46
  tail call void @lean_dec_ref_cold(ptr noundef nonnull %9) #5
  br label %lean_dec.exit

lean_dec.exit:                                    ; preds = %47, %46, %44, %lean_inc.exit
  tail call void @lean_inc_heartbeat() #5
  %48 = tail call noalias ptr @mi_malloc_small(i64 noundef 16) #5
  %49 = icmp eq ptr %48, null
  br i1 %49, label %50, label %lean_alloc_ctor.exit29

50:                                               ; preds = %lean_dec.exit
  tail call void @lean_internal_panic_out_of_memory() #4
  unreachable

lean_alloc_ctor.exit29:                           ; preds = %lean_dec.exit
  %51 = getelementptr inbounds nuw i8, ptr %48, i64 4
  store i32 1, ptr %48, align 4, !tbaa !4
  store i32 16842768, ptr %51, align 4
  %52 = getelementptr inbounds nuw i8, ptr %48, i64 8
  store ptr %1, ptr %52, align 8, !tbaa !12
  tail call void @lean_inc_heartbeat() #5
  %53 = tail call noalias ptr @mi_malloc_small(i64 noundef 24) #5
  %54 = icmp eq ptr %53, null
  br i1 %54, label %55, label %lean_alloc_ctor.exit30

55:                                               ; preds = %lean_alloc_ctor.exit29
  tail call void @lean_internal_panic_out_of_memory() #4
  unreachable

lean_alloc_ctor.exit30:                           ; preds = %lean_alloc_ctor.exit29
  %56 = getelementptr inbounds nuw i8, ptr %53, i64 4
  store i32 1, ptr %53, align 4, !tbaa !4
  store i32 131096, ptr %56, align 4
  %57 = getelementptr inbounds nuw i8, ptr %53, i64 8
  store ptr %48, ptr %57, align 8, !tbaa !12
  %58 = getelementptr inbounds nuw i8, ptr %53, i64 16
  store ptr %30, ptr %58, align 8, !tbaa !12
  br label %59

59:                                               ; preds = %lean_alloc_ctor.exit30, %lean_alloc_ctor.exit
  %.0 = phi ptr [ %9, %lean_alloc_ctor.exit ], [ %53, %lean_alloc_ctor.exit30 ]
  ret ptr %.0
}